; Function Attrs: mustprogress uwtable
define dso_local void @_ZN15PartialExpander12copy_expandsERSt3mapI14eStatementTypebSt4lessIS1_ESaISt4pairIKS1_bEEERKS8_(ptr noundef nonnull align 8 dereferenceable(48) %0, ptr noundef nonnull readonly align 8 captures(address) dereferenceable(48) %1) local_unnamed_addr #4 align 2 personality ptr @__gxx_personality_v0 {
  %3 = alloca i32, align 4
  %4 = getelementptr inbounds nuw i8, ptr %1, i64 24
  %5 = load ptr, ptr %4, align 8, !tbaa !13
  %6 = getelementptr inbounds nuw i8, ptr %1, i64 8
  %.not7 = icmp eq ptr %5, %6
  br i1 %.not7, label %._crit_edge, label %.lr.ph

.lr.ph:                                           ; preds = %2, %.lr.ph
  %.sroa.03.08 = phi ptr [ %12, %.lr.ph ], [ %5, %2 ]
  call void @llvm.lifetime.start.p0(i64 4, ptr nonnull %3) #21
  %7 = getelementptr inbounds nuw i8, ptr %.sroa.03.08, i64 32
  %8 = load i32, ptr %7, align 4, !tbaa !14
  store i32 %8, ptr %3, align 4, !tbaa !48
  %9 = getelementptr inbounds nuw i8, ptr %.sroa.03.08, i64 36
  %10 = load i8, ptr %9, align 4, !tbaa !18, !range !19, !noundef !20
  %11 = call noundef nonnull align 1 dereferenceable(1) ptr @_ZNSt3mapI14eStatementTypebSt4lessIS0_ESaISt4pairIKS0_bEEEixERS4_(ptr noundef nonnull align 8 dereferenceable(48) %0, ptr noundef nonnull align 4 dereferenceable(4) %3)
  store i8 %10, ptr %11, align 1, !tbaa !49
  call void @llvm.lifetime.end.p0(i64 4, ptr nonnull %3) #21
  %12 = call noundef ptr @_ZSt18_Rb_tree_incrementPKSt18_Rb_tree_node_base(ptr noundef %.sroa.03.08) #20
  %.not = icmp eq ptr %12, %6
  br i1 %.not, label %._crit_edge, label %.lr.ph, !llvm.loop !53

._crit_edge:                                      ; preds = %.lr.ph, %2
  ret void
}